(lp0
S'Kodak'
p1
ag1
ag1
ag1
ag1
ag1
ag1
ag1
ag1
ag1
ag1
ag1
ag1
ag1
ag1
ag1
ag1
ag1
ag1
ag1
ag1
ag1
ag1
ag1
ag1
ag1
ag1
ag1
ag1
ag1
ag1
ag1
ag1
ag1
ag1
ag1
ag1
ag1
ag1
ag1
ag1
ag1
ag1
ag1
ag1
ag1
ag1
ag1
ag1
ag1
ag1
ag1
ag1
ag1
ag1
ag1
ag1
ag1
ag1
ag1
ag1
ag1
ag1
ag1
ag1
ag1
ag1
ag1
ag1
ag1
ag1
ag1
ag1
ag1
ag1
ag1
ag1
ag1
ag1
ag1
ag1
ag1
ag1
ag1
ag1
ag1
ag1
ag1
ag1
ag1
ag1
ag1
ag1
ag1
ag1
ag1
ag1
ag1
ag1
ag1
ag1
ag1
ag1
ag1
ag1
ag1
ag1
ag1
ag1
ag1
ag1
ag1
ag1
ag1
ag1
ag1
ag1
ag1
ag1
ag1
ag1
ag1
ag1
ag1
ag1
ag1
ag1
ag1
ag1
ag1
ag1
ag1
ag1
ag1
ag1
ag1
ag1
ag1
ag1
ag1
ag1
ag1
ag1
ag1
ag1
ag1
ag1
ag1
ag1
ag1
ag1
ag1
ag1
ag1
ag1
ag1
ag1
ag1
ag1
ag1
ag1
ag1
ag1
ag1
ag1
ag1
ag1
ag1
ag1
ag1
ag1
ag1
ag1
ag1
ag1
ag1
ag1
ag1
ag1
ag1
ag1
ag1
ag1
ag1
ag1
ag1
ag1
ag1
ag1
ag1
ag1
ag1
ag1
ag1
ag1
aS'Youtube'
p2
ag2
ag2
ag2
ag2
ag2
ag2
ag2
ag2
ag2
ag2
ag2
ag2
ag2
ag2
ag2
ag2
ag2
ag2
ag2
ag2
ag2
ag2
ag2
ag2
ag2
ag2
ag2
ag2
ag2
ag2
ag2
ag2
ag2
ag2
ag2
ag2
ag2
ag2
ag2
ag2
ag2
ag2
ag2
ag2
ag2
ag2
ag2
ag2
ag2
ag2
ag2
ag2
ag2
ag2
ag2
ag2
ag2
ag2
ag2
ag2
ag2
ag2
ag2
ag2
ag2
ag2
ag2
ag2
ag2
ag2
ag2
ag2
ag2
ag2
ag2
ag2
ag2
ag2
ag2
ag2
ag2
ag2
ag2
ag2
ag2
ag2
ag2
ag2
ag2
ag2
ag2
ag2
ag2
ag2
ag2
ag2
ag2
ag2
ag2
ag2
ag2
ag2
ag2
ag2
ag2
ag2
ag2
ag2
ag2
ag2
ag2
ag2
ag2
ag2
ag2
ag2
ag2
ag2
ag2
ag2
ag2
ag2
ag2
ag2
ag2
ag2
ag2
ag2
ag2
ag2
ag2
ag2
ag2
ag2
ag2
ag2
ag2
ag2
ag2
ag2
ag2
ag2
ag2
ag2
ag2
ag2
ag2
ag2
ag2
ag2
ag2
ag2
ag2
ag2
ag2
ag2
ag2
ag2
ag2
ag2
ag2
ag2
ag2
ag2
ag2
ag2
ag2
ag2
ag2
ag2
ag2
ag2
ag2
ag2
ag2
ag2
ag2
ag2
ag2
ag2
ag2
ag2
ag2
ag2
ag2
ag2
ag2
ag2
ag2
ag2
ag2
ag2
ag2
ag2
ag2
ag2
ag2
ag2
ag2
ag2
ag2
ag2
ag2
ag2
ag2
ag2
ag2
ag2
ag2
ag2
ag2
ag2
ag2
ag2
ag2
ag2
ag2
ag2
ag2
ag2
ag2
ag2
ag2
ag2
ag2
ag2
ag2
ag2
ag2
ag2
ag2
ag2
ag2
ag2
ag2
ag2
ag2
ag2
ag2
ag2
ag2
ag2
ag2
ag2
ag2
ag2
ag2
ag2
ag2
ag2
ag2
ag2
ag2
ag2
ag2
ag2
ag2
ag2
ag2
ag2
ag2
ag2
ag2
ag2
ag2
ag2
ag2
ag2
ag2
ag2
ag2
ag2
ag2
ag2
ag2
ag2
ag2
ag2
ag2
ag2
ag2
ag2
ag2
ag2
ag2
ag2
ag2
ag2
ag2
ag2
ag2
ag2
ag2
ag2
ag2
ag2
ag2
ag2
ag2
ag2
ag2
ag2
ag2
ag2
ag2
ag2
ag2
ag2
ag2
ag2
ag2
ag2
ag2
ag2
ag2
ag2
ag2
ag2
ag2
ag2
ag2
ag2
ag2
ag2
ag2
ag2
ag2
ag2
ag2
ag2
ag2
ag2
ag2
ag2
ag2
ag2
ag2
ag2
ag2
ag2
ag2
ag2
ag2
ag2
ag2
ag2
ag2
ag2
ag2
ag2
ag2
ag2
ag2
ag2
ag2
ag2
ag2
ag2
ag2
ag2
ag2
ag2
ag2
ag2
ag2
ag2
ag2
ag2
ag2
ag2
ag2
ag2
ag2
ag2
ag2
ag2
ag2
ag2
ag2
ag2
ag2
ag2
ag2
ag2
ag2
ag2
ag2
ag2
ag2
ag2
ag2
ag2
ag2
ag2
ag2
ag2
ag2
ag2
ag2
ag2
ag2
ag2
ag2
ag2
ag2
ag2
ag2
ag2
ag2
ag2
ag2
ag2
ag2
ag2
ag2
ag2
ag2
ag2
ag2
ag2
ag2
ag2
ag2
ag2
ag2
ag2
ag2
ag2
ag2
ag2
ag2
ag2
ag2
ag2
ag2
ag2
ag2
ag2
ag2
ag2
ag2
ag2
ag2
ag2
ag2
ag2
ag2
ag2
ag2
ag2
ag2
ag2
ag2
ag2
ag2
ag2
ag2
ag2
ag2
ag2
ag2
ag2
ag2
ag2
ag2
ag2
ag2
ag2
ag2
ag2
ag2
ag2
ag2
ag2
ag2
ag2
ag2
ag2
ag2
ag2
ag2
ag2
ag2
ag2
ag2
ag2
ag2
ag2
ag2
ag2
ag2
ag2
ag2
ag2
ag2
ag2
ag2
ag2
ag2
ag2
ag2
ag2
ag2
ag2
ag2
ag2
ag2
ag2
ag2
ag2
ag2
ag2
ag2
ag2
ag2
ag2
ag2
ag2
ag2
ag2
ag2
ag2
ag2
ag2
ag2
ag2
ag2
ag2
ag2
ag2
ag2
ag2
ag2
ag2
ag2
ag2
ag2
ag2
ag2
ag2
ag2
ag2
ag2
ag2
ag2
ag2
ag2
ag2
ag2
ag2
ag2
ag2
ag2
ag2
ag2
ag2
ag2
ag2
ag2
ag2
ag2
ag2
ag2
ag2
ag2
ag2
ag2
ag2
ag2
ag2
ag2
ag2
ag2
ag2
ag2
ag2
ag2
ag2
ag2
ag2
ag2
ag2
ag2
ag2
ag2
ag2
ag2
ag2
ag2
ag2
ag2
ag2
ag2
ag2
ag2
ag2
ag2
ag2
ag2
ag2
ag2
ag2
ag2
ag2
ag2
ag2
ag2
ag2
ag2
ag2
ag2
ag2
ag2
ag2
ag2
ag2
ag2
ag2
ag2
ag2
ag2
ag2
ag2
ag2
ag2
ag2
ag2
ag2
ag2
ag2
ag2
ag2
ag2
ag2
ag2
ag2
ag2
ag2
ag2
ag2
ag2
ag2
ag2
ag2
ag2
ag2
ag2
ag2
ag2
ag2
ag2
ag2
ag2
ag2
ag2
ag2
ag2
ag2
ag2
ag2
ag2
ag2
ag2
ag2
ag2
ag2
ag2
ag2
ag2
ag2
ag2
ag2
ag2
ag2
ag2
ag2
ag2
ag2
ag2
ag2
ag2
ag2
ag2
ag2
ag2
ag2
ag2
ag2
ag2
ag2
ag2
ag2
ag2
ag2
ag2
ag2
ag2
ag2
ag2
ag2
ag2
ag2
ag2
ag2
ag2
ag2
ag2
ag2
ag2
ag2
ag2
ag2
ag2
ag2
ag2
ag2
ag2
ag2
ag2
ag2
ag2
ag2
ag2
ag2
ag2
ag2
ag2
ag2
ag2
ag2
ag2
ag2
ag2
ag2
ag2
ag2
ag2
ag2
ag2
ag2
ag2
ag2
ag2
ag2
ag2
ag2
ag2
ag2
ag2
ag2
ag2
ag2
ag2
ag2
ag2
ag2
ag2
ag2
ag2
ag2
ag2
ag2
ag2
ag2
ag2
ag2
ag2
ag2
ag2
ag2
ag2
ag2
ag2
ag2
ag2
ag2
ag2
ag2
ag2
ag2
ag2
ag2
ag2
ag2
ag2
ag2
ag2
ag2
ag2
ag2
ag2
ag2
ag2
ag2
ag2
ag2
ag2
ag2
ag2
ag2
ag2
ag2
ag2
ag2
ag2
ag2
ag2
ag2
ag2
ag2
ag2
ag2
ag2
ag2
ag2
ag2
ag2
ag2
ag2
ag2
ag2
ag2
ag2
ag2
ag2
ag2
ag2
ag2
ag2
ag2
ag2
ag2
ag2
ag2
ag2
ag2
ag2
ag2
ag2
ag2
ag2
ag2
ag2
ag2
ag2
ag2
ag2
ag2
ag2
ag2
ag2
ag2
ag2
ag2
ag2
ag2
ag2
ag2
ag2
ag2
ag2
ag2
ag2
ag2
ag2
ag2
ag2
ag2
ag2
ag2
ag2
ag2
ag2
ag2
ag2
ag2
ag2
ag2
ag2
ag2
ag2
ag2
ag2
ag2
ag2
ag2
ag2
ag2
ag2
ag2
ag2
ag2
ag2
ag2
ag2
ag2
ag2
ag2
ag2
ag2
ag2
ag2
ag2
ag2
ag2
a.